; Function Attrs: null_pointer_is_valid sspstrong uwtable
define internal noundef zeroext i1 @dnsserver_uat_fld_ip_chk_cb(ptr readnone captures(none) %0, ptr noundef %1, i32 %2, ptr readnone captures(none) %3, ptr readnone captures(none) %4, ptr noundef writeonly captures(none) initializes((0, 8)) %5) #3 {
  %.not = icmp eq ptr %1, null
  br i1 %.not, label %9, label %7

7:                                                ; preds = %6
  %8 = tail call i32 @g_hostname_is_ip_address(ptr noundef nonnull %1)
  %.not6 = icmp eq i32 %8, 0
  br i1 %.not6, label %9, label %11

9:                                                ; preds = %7, %6
  %10 = tail call noalias ptr (ptr, ptr, ...) @wmem_strdup_printf(ptr noundef null, ptr noundef nonnull @.str.57)
  br label %11

11:                                               ; preds = %7, %9
  %storemerge = phi ptr [ %10, %9 ], [ null, %7 ]
  %.0 = phi i1 [ false, %9 ], [ true, %7 ]
  store ptr %storemerge, ptr %5, align 8
  ret i1 %.0
}